; ModuleID = '14/677.c'
source_filename = "14/677.c"
target datalayout = "e-m:e-p270:32:32-p271:32:32-p272:64:64-i64:64-f80:128-n8:16:32:64-S128"
target triple = "x86_64-pc-linux-gnu"

@.str = private unnamed_addr constant [3 x i8] c"%d\00", align 1
@.str.1 = private unnamed_addr constant [9 x i8] c"%d %d %d\00", align 1
@.str.2 = private unnamed_addr constant [18 x i8] c"%d %d\0A%d %d\0A%d %d\00", align 1

; Function Attrs: noinline nounwind uwtable
define dso_local i32 @main() #0 {
  %1 = alloca i32, align 4
  %2 = alloca i32, align 4
  %3 = alloca i32, align 4
  %4 = alloca [100000 x i32], align 16
  %5 = alloca i32, align 4
  %6 = alloca [100000 x i32], align 16
  %7 = alloca [100000 x i32], align 16
  %8 = alloca [100000 x i32], align 16
  %9 = alloca i32, align 4
  %10 = alloca i32, align 4
  store i32 0, i32* %1, align 4
  %11 = call i32 (i8*, ...) @__isoc99_scanf(i8* getelementptr inbounds ([3 x i8], [3 x i8]* @.str, i64 0, i64 0), i32* %2)
  store i32 0, i32* %3, align 4
  br label %12

12:                                               ; preds = %39, %0
  %13 = load i32, i32* %3, align 4
  %14 = load i32, i32* %2, align 4
  %15 = icmp slt i32 %13, %14
  br i1 %15, label %16, label %42

16:                                               ; preds = %12
  %17 = load i32, i32* %3, align 4
  %18 = sext i32 %17 to i64
  %19 = getelementptr inbounds [100000 x i32], [100000 x i32]* %4, i64 0, i64 %18
  %20 = load i32, i32* %3, align 4
  %21 = sext i32 %20 to i64
  %22 = getelementptr inbounds [100000 x i32], [100000 x i32]* %6, i64 0, i64 %21
  %23 = load i32, i32* %3, align 4
  %24 = sext i32 %23 to i64
  %25 = getelementptr inbounds [100000 x i32], [100000 x i32]* %7, i64 0, i64 %24
  %26 = call i32 (i8*, ...) @__isoc99_scanf(i8* getelementptr inbounds ([9 x i8], [9 x i8]* @.str.1, i64 0, i64 0), i32* %19, i32* %22, i32* %25)
  %27 = load i32, i32* %3, align 4
  %28 = sext i32 %27 to i64
  %29 = getelementptr inbounds [100000 x i32], [100000 x i32]* %6, i64 0, i64 %28
  %30 = load i32, i32* %29, align 4
  %31 = load i32, i32* %3, align 4
  %32 = sext i32 %31 to i64
  %33 = getelementptr inbounds [100000 x i32], [100000 x i32]* %7, i64 0, i64 %32
  %34 = load i32, i32* %33, align 4
  %35 = add nsw i32 %30, %34
  %36 = load i32, i32* %3, align 4
  %37 = sext i32 %36 to i64
  %38 = getelementptr inbounds [100000 x i32], [100000 x i32]* %8, i64 0, i64 %37
  store i32 %35, i32* %38, align 4
  br label %39

39:                                               ; preds = %16
  %40 = load i32, i32* %3, align 4
  %41 = add nsw i32 %40, 1
  store i32 %41, i32* %3, align 4
  br label %12

42:                                               ; preds = %12
  store i32 1, i32* %5, align 4
  br label %43

43:                                               ; preds = %104, %42
  %44 = load i32, i32* %5, align 4
  %45 = icmp slt i32 %44, 4
  br i1 %45, label %46, label %107

46:                                               ; preds = %43
  store i32 0, i32* %3, align 4
  br label %47

47:                                               ; preds = %100, %46
  %48 = load i32, i32* %3, align 4
  %49 = load i32, i32* %2, align 4
  %50 = load i32, i32* %5, align 4
  %51 = sub nsw i32 %49, %50
  %52 = icmp slt i32 %48, %51
  br i1 %52, label %53, label %103

53:                                               ; preds = %47
  %54 = load i32, i32* %3, align 4
  %55 = sext i32 %54 to i64
  %56 = getelementptr inbounds [100000 x i32], [100000 x i32]* %8, i64 0, i64 %55
  %57 = load i32, i32* %56, align 4
  %58 = load i32, i32* %3, align 4
  %59 = add nsw i32 %58, 1
  %60 = sext i32 %59 to i64
  %61 = getelementptr inbounds [100000 x i32], [100000 x i32]* %8, i64 0, i64 %60
  %62 = load i32, i32* %61, align 4
  %63 = icmp sge i32 %57, %62
  br i1 %63, label %64, label %99

64:                                               ; preds = %53
  %65 = load i32, i32* %3, align 4
  %66 = sext i32 %65 to i64
  %67 = getelementptr inbounds [100000 x i32], [100000 x i32]* %8, i64 0, i64 %66
  %68 = load i32, i32* %67, align 4
  store i32 %68, i32* %9, align 4
  %69 = load i32, i32* %3, align 4
  %70 = add nsw i32 %69, 1
  %71 = sext i32 %70 to i64
  %72 = getelementptr inbounds [100000 x i32], [100000 x i32]* %8, i64 0, i64 %71
  %73 = load i32, i32* %72, align 4
  %74 = load i32, i32* %3, align 4
  %75 = sext i32 %74 to i64
  %76 = getelementptr inbounds [100000 x i32], [100000 x i32]* %8, i64 0, i64 %75
  store i32 %73, i32* %76, align 4
  %77 = load i32, i32* %9, align 4
  %78 = load i32, i32* %3, align 4
  %79 = add nsw i32 %78, 1
  %80 = sext i32 %79 to i64
  %81 = getelementptr inbounds [100000 x i32], [100000 x i32]* %8, i64 0, i64 %80
  store i32 %77, i32* %81, align 4
  %82 = load i32, i32* %3, align 4
  %83 = sext i32 %82 to i64
  %84 = getelementptr inbounds [100000 x i32], [100000 x i32]* %4, i64 0, i64 %83
  %85 = load i32, i32* %84, align 4
  store i32 %85, i32* %10, align 4
  %86 = load i32, i32* %3, align 4
  %87 = add nsw i32 %86, 1
  %88 = sext i32 %87 to i64
  %89 = getelementptr inbounds [100000 x i32], [100000 x i32]* %4, i64 0, i64 %88
  %90 = load i32, i32* %89, align 4
  %91 = load i32, i32* %3, align 4
  %92 = sext i32 %91 to i64
  %93 = getelementptr inbounds [100000 x i32], [100000 x i32]* %4, i64 0, i64 %92
  store i32 %90, i32* %93, align 4
  %94 = load i32, i32* %10, align 4
  %95 = load i32, i32* %3, align 4
  %96 = add nsw i32 %95, 1
  %97 = sext i32 %96 to i64
  %98 = getelementptr inbounds [100000 x i32], [100000 x i32]* %4, i64 0, i64 %97
  store i32 %94, i32* %98, align 4
  br label %99

99:                                               ; preds = %64, %53
  br label %100

100:                                              ; preds = %99
  %101 = load i32, i32* %3, align 4
  %102 = add nsw i32 %101, 1
  store i32 %102, i32* %3, align 4
  br label %47

103:                                              ; preds = %47
  br label %104

104:                                              ; preds = %103
  %105 = load i32, i32* %5, align 4
  %106 = add nsw i32 %105, 1
  store i32 %106, i32* %5, align 4
  br label %43

107:                                              ; preds = %43
  %108 = load i32, i32* %2, align 4
  %109 = sub nsw i32 %108, 1
  %110 = sext i32 %109 to i64
  %111 = getelementptr inbounds [100000 x i32], [100000 x i32]* %4, i64 0, i64 %110
  %112 = load i32, i32* %111, align 4
  %113 = load i32, i32* %2, align 4
  %114 = sub nsw i32 %113, 1
  %115 = sext i32 %114 to i64
  %116 = getelementptr inbounds [100000 x i32], [100000 x i32]* %8, i64 0, i64 %115
  %117 = load i32, i32* %116, align 4
  %118 = load i32, i32* %2, align 4
  %119 = sub nsw i32 %118, 2
  %120 = sext i32 %119 to i64
  %121 = getelementptr inbounds [100000 x i32], [100000 x i32]* %4, i64 0, i64 %120
  %122 = load i32, i32* %121, align 4
  %123 = load i32, i32* %2, align 4
  %124 = sub nsw i32 %123, 2
  %125 = sext i32 %124 to i64
  %126 = getelementptr inbounds [100000 x i32], [100000 x i32]* %8, i64 0, i64 %125
  %127 = load i32, i32* %126, align 4
  %128 = load i32, i32* %2, align 4
  %129 = sub nsw i32 %128, 3
  %130 = sext i32 %129 to i64
  %131 = getelementptr inbounds [100000 x i32], [100000 x i32]* %4, i64 0, i64 %130
  %132 = load i32, i32* %131, align 4
  %133 = load i32, i32* %2, align 4
  %134 = sub nsw i32 %133, 3
  %135 = sext i32 %134 to i64
  %136 = getelementptr inbounds [100000 x i32], [100000 x i32]* %8, i64 0, i64 %135
  %137 = load i32, i32* %136, align 4
  %138 = call i32 (i8*, ...) @printf(i8* getelementptr inbounds ([18 x i8], [18 x i8]* @.str.2, i64 0, i64 0), i32 %112, i32 %117, i32 %122, i32 %127, i32 %132, i32 %137)
  %139 = load i32, i32* %1, align 4
  ret i32 %139
}

declare dso_local i32 @__isoc99_scanf(i8*, ...) #1

declare dso_local i32 @printf(i8*, ...) #1


!llvm.module.flags = !{!0}
!llvm.ident = !{!1}

!0 = !{i32 1, !"wchar_size", i32 4}
!1 = !{!"clang version 10.0.0-4ubuntu1 "}
